target datalayout = "e-m:e-p270:32:32-p271:32:32-p272:64:64-i64:64-i128:128-f80:128-n8:16:32:64-S128"
target triple = "x86_64-pc-linux-gnu"

%struct.jpeg_decompress_struct = type { ptr, ptr, ptr, ptr, i32, i32, ptr, i32, i32, i32, i32, i32, i32, i32, double, i32, i32, i32, i32, i32, i32, i32, i32, i32, i32, i32, i32, i32, i32, i32, i32, i32, i32, ptr, i32, i32, i32, i32, i32, ptr, [4 x ptr], [4 x ptr], [4 x ptr], i32, ptr, i32, i32, [16 x i8], [16 x i8], [16 x i8], i32, i32, i8, i8, i8, i16, i16, i32, i8, i32, ptr, i32, i32, i32, i32, ptr, i32, [4 x ptr], i32, i32, i32, [10 x i32], i32, i32, i32, i32, i32, ptr, ptr, ptr, ptr, ptr, ptr, ptr, ptr, ptr, ptr, ptr }
%struct.JNINativeInterface_ = type { ptr, ptr, ptr, ptr, ptr, ptr, ptr, ptr, ptr, ptr, ptr, ptr, ptr, ptr, ptr, ptr, ptr, ptr, ptr, ptr, ptr, ptr, ptr, ptr, ptr, ptr, ptr, ptr, ptr, ptr, ptr, ptr, ptr, ptr, ptr, ptr, ptr, ptr, ptr, ptr, ptr, ptr, ptr, ptr, ptr, ptr, ptr, ptr, ptr, ptr, ptr, ptr, ptr, ptr, ptr, ptr, ptr, ptr, ptr, ptr, ptr, ptr, ptr, ptr, ptr, ptr, ptr, ptr, ptr, ptr, ptr, ptr, ptr, ptr, ptr, ptr, ptr, ptr, ptr, ptr, ptr, ptr, ptr, ptr, ptr, ptr, ptr, ptr, ptr, ptr, ptr, ptr, ptr, ptr, ptr, ptr, ptr, ptr, ptr, ptr, ptr, ptr, ptr, ptr, ptr, ptr, ptr, ptr, ptr, ptr, ptr, ptr, ptr, ptr, ptr, ptr, ptr, ptr, ptr, ptr, ptr, ptr, ptr, ptr, ptr, ptr, ptr, ptr, ptr, ptr, ptr, ptr, ptr, ptr, ptr, ptr, ptr, ptr, ptr, ptr, ptr, ptr, ptr, ptr, ptr, ptr, ptr, ptr, ptr, ptr, ptr, ptr, ptr, ptr, ptr, ptr, ptr, ptr, ptr, ptr, ptr, ptr, ptr, ptr, ptr, ptr, ptr, ptr, ptr, ptr, ptr, ptr, ptr, ptr, ptr, ptr, ptr, ptr, ptr, ptr, ptr, ptr, ptr, ptr, ptr, ptr, ptr, ptr, ptr, ptr, ptr, ptr, ptr, ptr, ptr, ptr, ptr, ptr, ptr, ptr, ptr, ptr, ptr, ptr, ptr, ptr, ptr, ptr, ptr, ptr, ptr, ptr, ptr, ptr, ptr, ptr, ptr, ptr, ptr, ptr, ptr, ptr, ptr, ptr, ptr, ptr, ptr, ptr, ptr, ptr, ptr, ptr, ptr, ptr, ptr }
%struct.jpeg_common_struct = type { ptr, ptr, ptr, ptr, i32, i32 }
%struct.jpeg_compress_struct = type { ptr, ptr, ptr, ptr, i32, i32, ptr, i32, i32, i32, i32, double, i32, i32, i32, ptr, [4 x ptr], [4 x ptr], [4 x ptr], [16 x i8], [16 x i8], [16 x i8], i32, ptr, i32, i32, i32, i32, i32, i32, i32, i32, i32, i8, i8, i8, i16, i16, i32, i32, i32, i32, i32, i32, i32, [4 x ptr], i32, i32, i32, [10 x i32], i32, i32, i32, i32, ptr, ptr, ptr, ptr, ptr, ptr, ptr, ptr, ptr, ptr, i32 }
%struct.JHUFF_TBL = type { [17 x i8], [256 x i8], i32 }

; Function Attrs: nounwind uwtable
define internal i32 @setHTables(ptr noundef %0, ptr noundef %1, ptr noundef %2, ptr noundef %3, i32 noundef %4) #0 {
  %6 = alloca i32, align 4
  %7 = alloca ptr, align 8
  %8 = alloca ptr, align 8
  %9 = alloca ptr, align 8
  %10 = alloca ptr, align 8
  %11 = alloca i32, align 4
  %12 = alloca i32, align 4
  %13 = alloca ptr, align 8
  %14 = alloca ptr, align 8
  %15 = alloca ptr, align 8
  %16 = alloca ptr, align 8
  %17 = alloca i32, align 4
  store ptr %0, ptr %7, align 8
  store ptr %1, ptr %8, align 8
  store ptr %2, ptr %9, align 8
  store ptr %3, ptr %10, align 8
  store i32 %4, ptr %11, align 4
  %18 = load ptr, ptr %7, align 8
  %19 = load ptr, ptr %18, align 8
  %20 = getelementptr inbounds %struct.JNINativeInterface_, ptr %19, i32 0, i32 171
  %21 = load ptr, ptr %20, align 8
  %22 = load ptr, ptr %7, align 8
  %23 = load ptr, ptr %9, align 8
  %24 = call i32 %21(ptr noundef %22, ptr noundef %23)
  store i32 %24, ptr %17, align 4
  %25 = load i32, ptr %17, align 4
  %26 = icmp sgt i32 %25, 4
  br i1 %26, label %27, label %28

27:                                               ; preds = %5
  store i32 4, ptr %17, align 4
  br label %28

28:                                               ; preds = %27, %5
  store i32 0, ptr %12, align 4
  br label %29

29:                                               ; preds = %111, %28
  %30 = load i32, ptr %12, align 4
  %31 = load i32, ptr %17, align 4
  %32 = icmp slt i32 %30, %31
  br i1 %32, label %33, label %114

33:                                               ; preds = %29
  %34 = load ptr, ptr %8, align 8
  %35 = getelementptr inbounds %struct.jpeg_common_struct, ptr %34, i32 0, i32 4
  %36 = load i32, ptr %35, align 8
  %37 = icmp ne i32 %36, 0
  br i1 %37, label %38, label %62

38:                                               ; preds = %33
  %39 = load ptr, ptr %8, align 8
  store ptr %39, ptr %16, align 8
  %40 = load ptr, ptr %16, align 8
  %41 = getelementptr inbounds %struct.jpeg_decompress_struct, ptr %40, i32 0, i32 41
  %42 = load i32, ptr %12, align 4
  %43 = sext i32 %42 to i64
  %44 = getelementptr inbounds [4 x ptr], ptr %41, i64 0, i64 %43
  %45 = load ptr, ptr %44, align 8
  %46 = icmp eq ptr %45, null
  br i1 %46, label %47, label %55

47:                                               ; preds = %38
  %48 = load ptr, ptr %8, align 8
  %49 = call ptr @jAlcHTable(ptr noundef %48)
  %50 = load ptr, ptr %16, align 8
  %51 = getelementptr inbounds %struct.jpeg_decompress_struct, ptr %50, i32 0, i32 41
  %52 = load i32, ptr %12, align 4
  %53 = sext i32 %52 to i64
  %54 = getelementptr inbounds [4 x ptr], ptr %51, i64 0, i64 %53
  store ptr %49, ptr %54, align 8
  br label %55

55:                                               ; preds = %47, %38
  %56 = load ptr, ptr %16, align 8
  %57 = getelementptr inbounds %struct.jpeg_decompress_struct, ptr %56, i32 0, i32 41
  %58 = load i32, ptr %12, align 4
  %59 = sext i32 %58 to i64
  %60 = getelementptr inbounds [4 x ptr], ptr %57, i64 0, i64 %59
  %61 = load ptr, ptr %60, align 8
  store ptr %61, ptr %14, align 8
  br label %86

62:                                               ; preds = %33
  %63 = load ptr, ptr %8, align 8
  store ptr %63, ptr %15, align 8
  %64 = load ptr, ptr %15, align 8
  %65 = getelementptr inbounds %struct.jpeg_compress_struct, ptr %64, i32 0, i32 17
  %66 = load i32, ptr %12, align 4
  %67 = sext i32 %66 to i64
  %68 = getelementptr inbounds [4 x ptr], ptr %65, i64 0, i64 %67
  %69 = load ptr, ptr %68, align 8
  %70 = icmp eq ptr %69, null
  br i1 %70, label %71, label %79

71:                                               ; preds = %62
  %72 = load ptr, ptr %8, align 8
  %73 = call ptr @jAlcHTable(ptr noundef %72)
  %74 = load ptr, ptr %15, align 8
  %75 = getelementptr inbounds %struct.jpeg_compress_struct, ptr %74, i32 0, i32 17
  %76 = load i32, ptr %12, align 4
  %77 = sext i32 %76 to i64
  %78 = getelementptr inbounds [4 x ptr], ptr %75, i64 0, i64 %77
  store ptr %73, ptr %78, align 8
  br label %79

79:                                               ; preds = %71, %62
  %80 = load ptr, ptr %15, align 8
  %81 = getelementptr inbounds %struct.jpeg_compress_struct, ptr %80, i32 0, i32 17
  %82 = load i32, ptr %12, align 4
  %83 = sext i32 %82 to i64
  %84 = getelementptr inbounds [4 x ptr], ptr %81, i64 0, i64 %83
  %85 = load ptr, ptr %84, align 8
  store ptr %85, ptr %14, align 8
  br label %86

86:                                               ; preds = %79, %55
  %87 = load ptr, ptr %7, align 8
  %88 = load ptr, ptr %87, align 8
  %89 = getelementptr inbounds %struct.JNINativeInterface_, ptr %88, i32 0, i32 173
  %90 = load ptr, ptr %89, align 8
  %91 = load ptr, ptr %7, align 8
  %92 = load ptr, ptr %9, align 8
  %93 = load i32, ptr %12, align 4
  %94 = call ptr %90(ptr noundef %91, ptr noundef %92, i32 noundef %93)
  store ptr %94, ptr %13, align 8
  %95 = load ptr, ptr %13, align 8
  %96 = icmp eq ptr %95, null
  br i1 %96, label %103, label %97

97:                                               ; preds = %86
  %98 = load ptr, ptr %7, align 8
  %99 = load ptr, ptr %14, align 8
  %100 = load ptr, ptr %13, align 8
  %101 = call i32 @setHuffTable(ptr noundef %98, ptr noundef %99, ptr noundef %100)
  %102 = icmp ne i32 %101, 0
  br i1 %102, label %104, label %103

103:                                              ; preds = %97, %86
  store i32 0, ptr %6, align 4
  br label %213

104:                                              ; preds = %97
  %105 = load i32, ptr %11, align 4
  %106 = icmp ne i32 %105, 0
  %107 = xor i1 %106, true
  %108 = zext i1 %107 to i32
  %109 = load ptr, ptr %14, align 8
  %110 = getelementptr inbounds %struct.JHUFF_TBL, ptr %109, i32 0, i32 2
  store i32 %108, ptr %110, align 4
  br label %111

111:                                              ; preds = %104
  %112 = load i32, ptr %12, align 4
  %113 = add nsw i32 %112, 1
  store i32 %113, ptr %12, align 4
  br label %29, !llvm.loop !20

114:                                              ; preds = %29
  %115 = load ptr, ptr %7, align 8
  %116 = load ptr, ptr %115, align 8
  %117 = getelementptr inbounds %struct.JNINativeInterface_, ptr %116, i32 0, i32 171
  %118 = load ptr, ptr %117, align 8
  %119 = load ptr, ptr %7, align 8
  %120 = load ptr, ptr %10, align 8
  %121 = call i32 %118(ptr noundef %119, ptr noundef %120)
  store i32 %121, ptr %17, align 4
  %122 = load i32, ptr %17, align 4
  %123 = icmp sgt i32 %122, 4
  br i1 %123, label %124, label %125

124:                                              ; preds = %114
  store i32 4, ptr %17, align 4
  br label %125

125:                                              ; preds = %124, %114
  store i32 0, ptr %12, align 4
  br label %126

126:                                              ; preds = %208, %125
  %127 = load i32, ptr %12, align 4
  %128 = load i32, ptr %17, align 4
  %129 = icmp slt i32 %127, %128
  br i1 %129, label %130, label %211

130:                                              ; preds = %126
  %131 = load ptr, ptr %8, align 8
  %132 = getelementptr inbounds %struct.jpeg_common_struct, ptr %131, i32 0, i32 4
  %133 = load i32, ptr %132, align 8
  %134 = icmp ne i32 %133, 0
  br i1 %134, label %135, label %159

135:                                              ; preds = %130
  %136 = load ptr, ptr %8, align 8
  store ptr %136, ptr %16, align 8
  %137 = load ptr, ptr %16, align 8
  %138 = getelementptr inbounds %struct.jpeg_decompress_struct, ptr %137, i32 0, i32 42
  %139 = load i32, ptr %12, align 4
  %140 = sext i32 %139 to i64
  %141 = getelementptr inbounds [4 x ptr], ptr %138, i64 0, i64 %140
  %142 = load ptr, ptr %141, align 8
  %143 = icmp eq ptr %142, null
  br i1 %143, label %144, label %152

144:                                              ; preds = %135
  %145 = load ptr, ptr %8, align 8
  %146 = call ptr @jAlcHTable(ptr noundef %145)
  %147 = load ptr, ptr %16, align 8
  %148 = getelementptr inbounds %struct.jpeg_decompress_struct, ptr %147, i32 0, i32 42
  %149 = load i32, ptr %12, align 4
  %150 = sext i32 %149 to i64
  %151 = getelementptr inbounds [4 x ptr], ptr %148, i64 0, i64 %150
  store ptr %146, ptr %151, align 8
  br label %152

152:                                              ; preds = %144, %135
  %153 = load ptr, ptr %16, align 8
  %154 = getelementptr inbounds %struct.jpeg_decompress_struct, ptr %153, i32 0, i32 42
  %155 = load i32, ptr %12, align 4
  %156 = sext i32 %155 to i64
  %157 = getelementptr inbounds [4 x ptr], ptr %154, i64 0, i64 %156
  %158 = load ptr, ptr %157, align 8
  store ptr %158, ptr %14, align 8
  br label %183

159:                                              ; preds = %130
  %160 = load ptr, ptr %8, align 8
  store ptr %160, ptr %15, align 8
  %161 = load ptr, ptr %15, align 8
  %162 = getelementptr inbounds %struct.jpeg_compress_struct, ptr %161, i32 0, i32 18
  %163 = load i32, ptr %12, align 4
  %164 = sext i32 %163 to i64
  %165 = getelementptr inbounds [4 x ptr], ptr %162, i64 0, i64 %164
  %166 = load ptr, ptr %165, align 8
  %167 = icmp eq ptr %166, null
  br i1 %167, label %168, label %176

168:                                              ; preds = %159
  %169 = load ptr, ptr %8, align 8
  %170 = call ptr @jAlcHTable(ptr noundef %169)
  %171 = load ptr, ptr %15, align 8
  %172 = getelementptr inbounds %struct.jpeg_compress_struct, ptr %171, i32 0, i32 18
  %173 = load i32, ptr %12, align 4
  %174 = sext i32 %173 to i64
  %175 = getelementptr inbounds [4 x ptr], ptr %172, i64 0, i64 %174
  store ptr %170, ptr %175, align 8
  br label %176

176:                                              ; preds = %168, %159
  %177 = load ptr, ptr %15, align 8
  %178 = getelementptr inbounds %struct.jpeg_compress_struct, ptr %177, i32 0, i32 18
  %179 = load i32, ptr %12, align 4
  %180 = sext i32 %179 to i64
  %181 = getelementptr inbounds [4 x ptr], ptr %178, i64 0, i64 %180
  %182 = load ptr, ptr %181, align 8
  store ptr %182, ptr %14, align 8
  br label %183

183:                                              ; preds = %176, %152
  %184 = load ptr, ptr %7, align 8
  %185 = load ptr, ptr %184, align 8
  %186 = getelementptr inbounds %struct.JNINativeInterface_, ptr %185, i32 0, i32 173
  %187 = load ptr, ptr %186, align 8
  %188 = load ptr, ptr %7, align 8
  %189 = load ptr, ptr %10, align 8
  %190 = load i32, ptr %12, align 4
  %191 = call ptr %187(ptr noundef %188, ptr noundef %189, i32 noundef %190)
  store ptr %191, ptr %13, align 8
  %192 = load ptr, ptr %13, align 8
  %193 = icmp eq ptr %192, null
  br i1 %193, label %200, label %194

194:                                              ; preds = %183
  %195 = load ptr, ptr %7, align 8
  %196 = load ptr, ptr %14, align 8
  %197 = load ptr, ptr %13, align 8
  %198 = call i32 @setHuffTable(ptr noundef %195, ptr noundef %196, ptr noundef %197)
  %199 = icmp ne i32 %198, 0
  br i1 %199, label %201, label %200

200:                                              ; preds = %194, %183
  store i32 0, ptr %6, align 4
  br label %213

201:                                              ; preds = %194
  %202 = load i32, ptr %11, align 4
  %203 = icmp ne i32 %202, 0
  %204 = xor i1 %203, true
  %205 = zext i1 %204 to i32
  %206 = load ptr, ptr %14, align 8
  %207 = getelementptr inbounds %struct.JHUFF_TBL, ptr %206, i32 0, i32 2
  store i32 %205, ptr %207, align 4
  br label %208

208:                                              ; preds = %201
  %209 = load i32, ptr %12, align 4
  %210 = add nsw i32 %209, 1
  store i32 %210, ptr %12, align 4
  br label %126, !llvm.loop !21

211:                                              ; preds = %126
  %212 = load i32, ptr %17, align 4
  store i32 %212, ptr %6, align 4
  br label %213

213:                                              ; preds = %211, %200, %103
  %214 = load i32, ptr %6, align 4
  ret i32 %214
}