; Function Attrs: nounwind uwtable
define internal fastcc void @setHTables(ptr noundef %0, ptr noundef %1, ptr noundef %2, ptr noundef %3, i32 noundef %4) unnamed_addr #1 {
  %6 = load ptr, ptr %0, align 8
  %7 = getelementptr inbounds i8, ptr %6, i64 1368
  %8 = load ptr, ptr %7, align 8
  %9 = tail call i32 %8(ptr noundef nonnull %0, ptr noundef %2) #13
  %10 = icmp sgt i32 %9, 0
  br i1 %10, label %.lr.ph, label %._crit_edge

.lr.ph:                                           ; preds = %5
  %11 = tail call i32 @llvm.umin.i32(i32 %9, i32 4)
  %12 = getelementptr inbounds i8, ptr %1, i64 32
  %13 = getelementptr inbounds i8, ptr %1, i64 232
  %14 = getelementptr inbounds i8, ptr %1, i64 128
  %.not79 = icmp eq i32 %4, 0
  %15 = zext i1 %.not79 to i32
  %wide.trip.count = zext nneg i32 %11 to i64
  br label %16

16:                                               ; preds = %.lr.ph, %36
  %indvars.iv = phi i64 [ 0, %.lr.ph ], [ %indvars.iv.next, %36 ]
  %17 = load i32, ptr %12, align 8
  %.not77 = icmp eq i32 %17, 0
  br i1 %.not77, label %22, label %18

18:                                               ; preds = %16
  %19 = getelementptr inbounds [4 x ptr], ptr %13, i64 0, i64 %indvars.iv
  %20 = load ptr, ptr %19, align 8
  %21 = icmp eq ptr %20, null
  br i1 %21, label %.sink.split, label %27

22:                                               ; preds = %16
  %23 = getelementptr inbounds [4 x ptr], ptr %14, i64 0, i64 %indvars.iv
  %24 = load ptr, ptr %23, align 8
  %25 = icmp eq ptr %24, null
  br i1 %25, label %.sink.split, label %27

.sink.split:                                      ; preds = %22, %18
  %.sink99 = phi ptr [ %19, %18 ], [ %23, %22 ]
  %26 = tail call ptr @jAlcHTable(ptr noundef nonnull %1) #13
  store ptr %26, ptr %.sink99, align 8
  br label %27

27:                                               ; preds = %.sink.split, %22, %18
  %.0 = phi ptr [ %20, %18 ], [ %24, %22 ], [ %26, %.sink.split ]
  %28 = load ptr, ptr %0, align 8
  %29 = getelementptr inbounds i8, ptr %28, i64 1384
  %30 = load ptr, ptr %29, align 8
  %31 = trunc nuw nsw i64 %indvars.iv to i32
  %32 = tail call ptr %30(ptr noundef nonnull %0, ptr noundef %2, i32 noundef %31) #13
  %33 = icmp eq ptr %32, null
  br i1 %33, label %.loopexit, label %34

34:                                               ; preds = %27
  %35 = tail call fastcc i32 @setHuffTable(ptr noundef nonnull %0, ptr noundef %.0, ptr noundef nonnull %32)
  %.not78 = icmp eq i32 %35, 0
  br i1 %.not78, label %.loopexit, label %36

36:                                               ; preds = %34
  %37 = getelementptr inbounds i8, ptr %.0, i64 276
  store i32 %15, ptr %37, align 4
  %indvars.iv.next = add nuw nsw i64 %indvars.iv, 1
  %exitcond.not = icmp eq i64 %indvars.iv.next, %wide.trip.count
  br i1 %exitcond.not, label %._crit_edge, label %16, !llvm.loop !19

._crit_edge:                                      ; preds = %36, %5
  %38 = load ptr, ptr %0, align 8
  %39 = getelementptr inbounds i8, ptr %38, i64 1368
  %40 = load ptr, ptr %39, align 8
  %41 = tail call i32 %40(ptr noundef nonnull %0, ptr noundef %3) #13
  %42 = icmp sgt i32 %41, 0
  br i1 %42, label %.lr.ph84, label %.loopexit

.lr.ph84:                                         ; preds = %._crit_edge
  %spec.store.select1 = tail call i32 @llvm.smin.i32(i32 %41, i32 4)
  %43 = getelementptr inbounds i8, ptr %1, i64 32
  %44 = getelementptr inbounds i8, ptr %1, i64 264
  %45 = getelementptr inbounds i8, ptr %1, i64 160
  %.not76 = icmp eq i32 %4, 0
  %46 = zext i1 %.not76 to i32
  %wide.trip.count94 = zext nneg i32 %spec.store.select1 to i64
  br label %47

47:                                               ; preds = %.lr.ph84, %67
  %indvars.iv91 = phi i64 [ 0, %.lr.ph84 ], [ %indvars.iv.next92, %67 ]
  %48 = load i32, ptr %43, align 8
  %.not = icmp eq i32 %48, 0
  br i1 %.not, label %53, label %49

49:                                               ; preds = %47
  %50 = getelementptr inbounds [4 x ptr], ptr %44, i64 0, i64 %indvars.iv91
  %51 = load ptr, ptr %50, align 8
  %52 = icmp eq ptr %51, null
  br i1 %52, label %.sink.split100, label %58

53:                                               ; preds = %47
  %54 = getelementptr inbounds [4 x ptr], ptr %45, i64 0, i64 %indvars.iv91
  %55 = load ptr, ptr %54, align 8
  %56 = icmp eq ptr %55, null
  br i1 %56, label %.sink.split100, label %58

.sink.split100:                                   ; preds = %53, %49
  %.sink101 = phi ptr [ %50, %49 ], [ %54, %53 ]
  %57 = tail call ptr @jAlcHTable(ptr noundef nonnull %1) #13
  store ptr %57, ptr %.sink101, align 8
  br label %58

58:                                               ; preds = %.sink.split100, %53, %49
  %.1 = phi ptr [ %51, %49 ], [ %55, %53 ], [ %57, %.sink.split100 ]
  %59 = load ptr, ptr %0, align 8
  %60 = getelementptr inbounds i8, ptr %59, i64 1384
  %61 = load ptr, ptr %60, align 8
  %62 = trunc nuw nsw i64 %indvars.iv91 to i32
  %63 = tail call ptr %61(ptr noundef nonnull %0, ptr noundef %3, i32 noundef %62) #13
  %64 = icmp eq ptr %63, null
  br i1 %64, label %.loopexit, label %65

65:                                               ; preds = %58
  %66 = tail call fastcc i32 @setHuffTable(ptr noundef nonnull %0, ptr noundef %.1, ptr noundef nonnull %63)
  %.not75 = icmp eq i32 %66, 0
  br i1 %.not75, label %.loopexit, label %67

67:                                               ; preds = %65
  %68 = getelementptr inbounds i8, ptr %.1, i64 276
  store i32 %46, ptr %68, align 4
  %indvars.iv.next92 = add nuw nsw i64 %indvars.iv91, 1
  %exitcond95.not = icmp eq i64 %indvars.iv.next92, %wide.trip.count94
  br i1 %exitcond95.not, label %.loopexit, label %47, !llvm.loop !20

.loopexit:                                        ; preds = %27, %34, %65, %58, %67, %._crit_edge
  ret void
}